; ModuleID = '34/25.c'
source_filename = "34/25.c"
target datalayout = "e-m:e-p270:32:32-p271:32:32-p272:64:64-i64:64-f80:128-n8:16:32:64-S128"
target triple = "x86_64-pc-linux-gnu"

@__const.main.str = private unnamed_addr constant [5 x i8] c"End\00\00", align 1
@.str = private unnamed_addr constant [3 x i8] c"%d\00", align 1
@.str.1 = private unnamed_addr constant [9 x i8] c"%d/2=%d\0A\00", align 1
@.str.2 = private unnamed_addr constant [11 x i8] c"%d*3+1=%d\0A\00", align 1
@.str.3 = private unnamed_addr constant [3 x i8] c"%s\00", align 1

; Function Attrs: noinline nounwind uwtable
define dso_local void @main() #0 {
  %1 = alloca i32, align 4
  %2 = alloca [5 x i8], align 1
  %3 = bitcast [5 x i8]* %2 to i8*
  call void @llvm.memcpy.p0i8.p0i8.i64(i8* align 1 %3, i8* align 1 getelementptr inbounds ([5 x i8], [5 x i8]* @__const.main.str, i32 0, i32 0), i64 5, i1 false)
  %4 = call i32 (i8*, ...) @__isoc99_scanf(i8* getelementptr inbounds ([3 x i8], [3 x i8]* @.str, i64 0, i64 0), i32* %1)
  br label %5

5:                                                ; preds = %28, %0
  %6 = load i32, i32* %1, align 4
  %7 = icmp ne i32 %6, 1
  br i1 %7, label %8, label %29

8:                                                ; preds = %5
  %9 = load i32, i32* %1, align 4
  %10 = srem i32 %9, 2
  %11 = icmp eq i32 %10, 0
  br i1 %11, label %12, label %19

12:                                               ; preds = %8
  %13 = load i32, i32* %1, align 4
  %14 = load i32, i32* %1, align 4
  %15 = sdiv i32 %14, 2
  %16 = call i32 (i8*, ...) @printf(i8* getelementptr inbounds ([9 x i8], [9 x i8]* @.str.1, i64 0, i64 0), i32 %13, i32 %15)
  %17 = load i32, i32* %1, align 4
  %18 = sdiv i32 %17, 2
  store i32 %18, i32* %1, align 4
  br label %28

19:                                               ; preds = %8
  %20 = load i32, i32* %1, align 4
  %21 = load i32, i32* %1, align 4
  %22 = mul nsw i32 %21, 3
  %23 = add nsw i32 %22, 1
  %24 = call i32 (i8*, ...) @printf(i8* getelementptr inbounds ([11 x i8], [11 x i8]* @.str.2, i64 0, i64 0), i32 %20, i32 %23)
  %25 = load i32, i32* %1, align 4
  %26 = mul nsw i32 %25, 3
  %27 = add nsw i32 %26, 1
  store i32 %27, i32* %1, align 4
  br label %28

28:                                               ; preds = %19, %12
  br label %5

29:                                               ; preds = %5
  %30 = getelementptr inbounds [5 x i8], [5 x i8]* %2, i64 0, i64 0
  %31 = call i32 (i8*, ...) @printf(i8* getelementptr inbounds ([3 x i8], [3 x i8]* @.str.3, i64 0, i64 0), i8* %30)
  ret void
}

; Function Attrs: argmemonly nounwind willreturn
declare void @llvm.memcpy.p0i8.p0i8.i64(i8* noalias nocapture writeonly, i8* noalias nocapture readonly, i64, i1 immarg) #1

declare dso_local i32 @__isoc99_scanf(i8*, ...) #2

declare dso_local i32 @printf(i8*, ...) #2


!llvm.module.flags = !{!0}
!llvm.ident = !{!1}

!0 = !{i32 1, !"wchar_size", i32 4}
!1 = !{!"clang version 10.0.0-4ubuntu1 "}
